; Function Attrs: mustprogress uwtable
define dso_local void @_ZNK4pbrt15RealisticCamera20LensElementInterface8ToStringB5cxx11Ev(ptr dead_on_unwind noalias writable sret(%"class.std::__cxx11::basic_string") align 8 %0, ptr noundef nonnull align 4 dereferenceable(16) %1) local_unnamed_addr #2 align 2 personality ptr @__gxx_personality_v0 {
  %3 = getelementptr inbounds nuw i8, ptr %1, i64 4
  %4 = getelementptr inbounds nuw i8, ptr %1, i64 8
  %5 = getelementptr inbounds nuw i8, ptr %1, i64 12
  %6 = getelementptr inbounds nuw i8, ptr %0, i64 16
  store ptr %6, ptr %0, align 8, !tbaa !28, !alias.scope !401
  %7 = getelementptr inbounds nuw i8, ptr %0, i64 8
  store i64 0, ptr %7, align 8, !tbaa !34, !alias.scope !401
  store i8 0, ptr %6, align 8, !tbaa !25, !alias.scope !401
  invoke void @_ZN4pbrt6detail21stringPrintfRecursiveIRKfJS3_S3_S3_EEEvPNSt7__cxx1112basic_stringIcSt11char_traitsIcESaIcEEEPKcOT_DpOT0_(ptr noundef nonnull align 8 %0, ptr noundef nonnull @.str.45, ptr noundef nonnull align 4 dereferenceable(4) %1, ptr noundef nonnull align 4 dereferenceable(4) %3, ptr noundef nonnull align 4 dereferenceable(4) %4, ptr noundef nonnull align 4 dereferenceable(4) %5)
          to label %_ZN4pbrt12StringPrintfIJRKfS2_S2_S2_EEENSt7__cxx1112basic_stringIcSt11char_traitsIcESaIcEEEPKcDpOT_.exit unwind label %8

8:                                                ; preds = %2
  %9 = landingpad { ptr, i32 }
          cleanup
  %10 = load ptr, ptr %0, align 8, !tbaa !37, !alias.scope !401
  %11 = icmp eq ptr %10, %6
  br i1 %11, label %_ZNKSt7__cxx1112basic_stringIcSt11char_traitsIcESaIcEE11_M_is_localEv.exit.thread.i.i.i, label %_ZNKSt7__cxx1112basic_stringIcSt11char_traitsIcESaIcEE11_M_is_localEv.exit.i.i.i

_ZNKSt7__cxx1112basic_stringIcSt11char_traitsIcESaIcEE11_M_is_localEv.exit.thread.i.i.i: ; preds = %8
  %12 = load i64, ptr %7, align 8, !tbaa !34, !alias.scope !401
  %13 = icmp ult i64 %12, 16
  tail call void @llvm.assume(i1 %13)
  br label %_ZNSt7__cxx1112basic_stringIcSt11char_traitsIcESaIcEED2Ev.exit.i

_ZNKSt7__cxx1112basic_stringIcSt11char_traitsIcESaIcEE11_M_is_localEv.exit.i.i.i: ; preds = %8
  %14 = load i64, ptr %6, align 8, !tbaa !25, !alias.scope !401
  %15 = add i64 %14, 1
  tail call void @_ZdlPvm(ptr noundef %10, i64 noundef %15) #31
  br label %_ZNSt7__cxx1112basic_stringIcSt11char_traitsIcESaIcEED2Ev.exit.i

_ZNSt7__cxx1112basic_stringIcSt11char_traitsIcESaIcEED2Ev.exit.i: ; preds = %_ZNKSt7__cxx1112basic_stringIcSt11char_traitsIcESaIcEE11_M_is_localEv.exit.i.i.i, %_ZNKSt7__cxx1112basic_stringIcSt11char_traitsIcESaIcEE11_M_is_localEv.exit.thread.i.i.i
  resume { ptr, i32 } %9

_ZN4pbrt12StringPrintfIJRKfS2_S2_S2_EEENSt7__cxx1112basic_stringIcSt11char_traitsIcESaIcEEEPKcDpOT_.exit: ; preds = %2
  ret void
}